target datalayout = "e-m:e-p270:32:32-p271:32:32-p272:64:64-i64:64-i128:128-f80:128-n8:16:32:64-S128"
target triple = "x86_64-pc-linux-gnu"

@stderr = external global ptr, align 8
@.str = private unnamed_addr constant [4 x i8] c"%s\0A\00", align 1
@.str.5 = private unnamed_addr constant [30 x i8] c"Bad f argument or I/O failure\00", align 1

; Function Attrs: nounwind uwtable
define ptr @CORD_from_file_lazy(ptr noundef %0) #0 {
  %2 = alloca ptr, align 8
  %3 = alloca i64, align 8
  store ptr %0, ptr %2, align 8, !tbaa !9
  call void @llvm.lifetime.start.p0(i64 8, ptr %3) #9
  %4 = load ptr, ptr %2, align 8, !tbaa !9
  %5 = call i32 @fseek(ptr noundef %4, i64 noundef 0, i32 noundef 2)
  %6 = icmp ne i32 %5, 0
  br i1 %6, label %15, label %7

7:                                                ; preds = %1
  %8 = load ptr, ptr %2, align 8, !tbaa !9
  %9 = call i64 @ftell(ptr noundef %8)
  store i64 %9, ptr %3, align 8, !tbaa !11
  %10 = icmp slt i64 %9, 0
  br i1 %10, label %15, label %11

11:                                               ; preds = %7
  %12 = load ptr, ptr %2, align 8, !tbaa !9
  %13 = call i32 @fseek(ptr noundef %12, i64 noundef 0, i32 noundef 0)
  %14 = icmp ne i32 %13, 0
  br i1 %14, label %15, label %18

15:                                               ; preds = %11, %7, %1
  %16 = load ptr, ptr @stderr, align 8, !tbaa !9
  %17 = call i32 (ptr, ptr, ...) @fprintf(ptr noundef %16, ptr noundef @.str, ptr noundef @.str.5) #9
  call void @abort() #11
  unreachable

18:                                               ; preds = %11
  %19 = load ptr, ptr %2, align 8, !tbaa !9
  %20 = load i64, ptr %3, align 8, !tbaa !11
  %21 = call ptr @CORD_from_file_lazy_inner(ptr noundef %19, i64 noundef %20)
  call void @llvm.lifetime.end.p0(i64 8, ptr %3) #9
  ret ptr %21
}