; Function Attrs: nounwind uwtable
define ptr @CORD_from_file_lazy(ptr noundef %0) local_unnamed_addr #0 {
  %2 = tail call i32 @fseek(ptr noundef %0, i64 noundef 0, i32 noundef 2)
  %.not = icmp eq i32 %2, 0
  br i1 %.not, label %3, label %8

3:                                                ; preds = %1
  %4 = tail call i64 @ftell(ptr noundef %0)
  %5 = icmp slt i64 %4, 0
  br i1 %5, label %8, label %6

6:                                                ; preds = %3
  %7 = tail call i32 @fseek(ptr noundef %0, i64 noundef 0, i32 noundef 0)
  %.not4 = icmp eq i32 %7, 0
  br i1 %.not4, label %11, label %8

8:                                                ; preds = %6, %3, %1
  %9 = load ptr, ptr @stderr, align 8, !tbaa !3
  %10 = tail call i32 (ptr, ptr, ...) @fprintf(ptr noundef %9, ptr noundef nonnull @.str, ptr noundef nonnull @.str.5) #18
  tail call void @abort() #19
  unreachable

11:                                               ; preds = %6
  %12 = tail call fastcc ptr @CORD_from_file_lazy_inner(ptr noundef %0, i64 noundef %4)
  ret ptr %12
}